target datalayout = "e-m:e-p270:32:32-p271:32:32-p272:64:64-i64:64-i128:128-f80:128-n8:16:32:64-S128"
target triple = "x86_64-pc-linux-gnu"

%struct.AVChannelLayout = type { i32, i32, %union.anon.1, ptr }
%union.anon.1 = type { i64 }
%struct.AVCodecContext = type { ptr, i32, i32, ptr, i32, i32, ptr, ptr, ptr, i64, i32, i32, ptr, i32, %struct.AVRational, %struct.AVRational, %struct.AVRational, i32, i32, i32, i32, i32, %struct.AVRational, i32, i32, i32, i32, i32, i32, i32, i32, i32, i32, i32, ptr, ptr, i32, float, float, float, float, float, float, float, float, float, i32, i32, i32, i32, i32, i32, i32, i32, i32, i32, i32, i32, ptr, ptr, ptr, i32, i32, i32, i32, i32, i32, i32, i32, i32, i32, %struct.AVChannelLayout, i32, i32, i32, i32, i32, i32, i32, i32, ptr, i32, i32, i32, float, float, i32, i32, i32, i32, i32, ptr, i64, i64, float, float, i32, i32, ptr, ptr, i32, i32, i32, i32, i32, ptr, ptr, ptr, ptr, i32, i32, [8 x i64], i32, i32, i32, i32, i32, i32, i32, ptr, ptr, i32, i32, i32, i32, i32, i32, i32, i32, i32, i32, ptr, ptr, i32, i32, ptr, ptr, ptr, ptr, i32, i32, i64, i32, i32, i64, ptr, i64, ptr, i32, ptr, i32 }
%struct.AVRational = type { i32, i32 }
%struct.EVRCContext = type { ptr, i32, %struct.GetBitContext, i32, i32, %struct.EVRCAFrame, [10 x float], [10 x float], [10 x float], [10 x float], [10 x float], [182 x float], float, float, float, float, [192 x float], [128 x float], [136 x float], [3 x float], float, float, i8, i8, i8 }
%struct.GetBitContext = type { ptr, ptr, i32, i32, i32 }
%struct.EVRCAFrame = type { i8, [4 x i16], i8, i8, [3 x i8], [3 x [4 x i16]], [3 x i8], i8, i8 }

; Function Attrs: cold nounwind optsize uwtable
define internal i32 @evrc_decode_init(ptr noundef %0) #0 {
  %2 = alloca ptr, align 8
  %3 = alloca ptr, align 8
  %4 = alloca i32, align 4
  %5 = alloca i32, align 4
  %6 = alloca i32, align 4
  %7 = alloca float, align 4
  %8 = alloca %struct.AVChannelLayout, align 8
  %9 = alloca float, align 4
  %10 = alloca float, align 4
  %11 = alloca float, align 4
  store ptr %0, ptr %2, align 8, !tbaa !4
  call void @llvm.lifetime.start.p0(i64 8, ptr %3) #9
  %12 = load ptr, ptr %2, align 8, !tbaa !4
  %13 = getelementptr inbounds nuw %struct.AVCodecContext, ptr %12, i32 0, i32 6
  %14 = load ptr, ptr %13, align 8, !tbaa !9
  store ptr %14, ptr %3, align 8, !tbaa !29
  call void @llvm.lifetime.start.p0(i64 4, ptr %4) #9
  call void @llvm.lifetime.start.p0(i64 4, ptr %5) #9
  call void @llvm.lifetime.start.p0(i64 4, ptr %6) #9
  store i32 0, ptr %6, align 4, !tbaa !31
  call void @llvm.lifetime.start.p0(i64 4, ptr %7) #9
  store float 0x3FBE1E1E20000000, ptr %7, align 4, !tbaa !32
  %15 = load ptr, ptr %2, align 8, !tbaa !4
  %16 = getelementptr inbounds nuw %struct.AVCodecContext, ptr %15, i32 0, i32 71
  call void @av_channel_layout_uninit(ptr noundef %16)
  %17 = load ptr, ptr %2, align 8, !tbaa !4
  %18 = getelementptr inbounds nuw %struct.AVCodecContext, ptr %17, i32 0, i32 71
  %19 = getelementptr inbounds nuw %struct.AVChannelLayout, ptr %8, i32 0, i32 0
  store i32 1, ptr %19, align 8, !tbaa !33
  %20 = getelementptr inbounds nuw %struct.AVChannelLayout, ptr %8, i32 0, i32 1
  store i32 1, ptr %20, align 4, !tbaa !34
  %21 = getelementptr inbounds nuw %struct.AVChannelLayout, ptr %8, i32 0, i32 2
  store i64 4, ptr %21, align 8, !tbaa !35
  %22 = getelementptr inbounds nuw %struct.AVChannelLayout, ptr %8, i32 0, i32 3
  store ptr null, ptr %22, align 8, !tbaa !36
  call void @llvm.memcpy.p0.p0.i64(ptr align 8 %18, ptr align 8 %8, i64 24, i1 false), !tbaa.struct !37
  %23 = load ptr, ptr %2, align 8, !tbaa !4
  %24 = getelementptr inbounds nuw %struct.AVCodecContext, ptr %23, i32 0, i32 70
  store i32 3, ptr %24, align 4, !tbaa !39
  store i32 0, ptr %4, align 4, !tbaa !31
  br label %25

25:                                               ; preds = %44, %1
  %26 = load i32, ptr %4, align 4, !tbaa !31
  %27 = icmp slt i32 %26, 10
  br i1 %27, label %28, label %47

28:                                               ; preds = %25
  %29 = load i32, ptr %4, align 4, !tbaa !31
  %30 = add nsw i32 %29, 1
  %31 = sitofp i32 %30 to double
  %32 = fmul nsz double %31, 4.800000e-02
  %33 = fptrunc nsz double %32 to float
  %34 = load ptr, ptr %3, align 8, !tbaa !29
  %35 = getelementptr inbounds nuw %struct.EVRCContext, ptr %34, i32 0, i32 7
  %36 = load i32, ptr %4, align 4, !tbaa !31
  %37 = sext i32 %36 to i64
  %38 = getelementptr inbounds [10 x float], ptr %35, i64 0, i64 %37
  store float %33, ptr %38, align 4, !tbaa !32
  %39 = load ptr, ptr %3, align 8, !tbaa !29
  %40 = getelementptr inbounds nuw %struct.EVRCContext, ptr %39, i32 0, i32 8
  %41 = load i32, ptr %4, align 4, !tbaa !31
  %42 = sext i32 %41 to i64
  %43 = getelementptr inbounds [10 x float], ptr %40, i64 0, i64 %42
  store float 0.000000e+00, ptr %43, align 4, !tbaa !32
  br label %44

44:                                               ; preds = %28
  %45 = load i32, ptr %4, align 4, !tbaa !31
  %46 = add nsw i32 %45, 1
  store i32 %46, ptr %4, align 4, !tbaa !31
  br label %25, !llvm.loop !40

47:                                               ; preds = %25
  store i32 0, ptr %4, align 4, !tbaa !31
  br label %48

48:                                               ; preds = %62, %47
  %49 = load i32, ptr %4, align 4, !tbaa !31
  %50 = icmp slt i32 %49, 128
  br i1 %50, label %51, label %65

51:                                               ; preds = %48
  %52 = load ptr, ptr %3, align 8, !tbaa !29
  %53 = getelementptr inbounds nuw %struct.EVRCContext, ptr %52, i32 0, i32 17
  %54 = load i32, ptr %4, align 4, !tbaa !31
  %55 = sext i32 %54 to i64
  %56 = getelementptr inbounds [128 x float], ptr %53, i64 0, i64 %55
  store float 0.000000e+00, ptr %56, align 4, !tbaa !32
  %57 = load ptr, ptr %3, align 8, !tbaa !29
  %58 = getelementptr inbounds nuw %struct.EVRCContext, ptr %57, i32 0, i32 16
  %59 = load i32, ptr %4, align 4, !tbaa !31
  %60 = sext i32 %59 to i64
  %61 = getelementptr inbounds [192 x float], ptr %58, i64 0, i64 %60
  store float 0.000000e+00, ptr %61, align 4, !tbaa !32
  br label %62

62:                                               ; preds = %51
  %63 = load i32, ptr %4, align 4, !tbaa !31
  %64 = add nsw i32 %63, 1
  store i32 %64, ptr %4, align 4, !tbaa !31
  br label %48, !llvm.loop !42

65:                                               ; preds = %48
  %66 = load ptr, ptr %3, align 8, !tbaa !29
  %67 = getelementptr inbounds nuw %struct.EVRCContext, ptr %66, i32 0, i32 4
  store i32 1, ptr %67, align 4, !tbaa !43
  %68 = load ptr, ptr %3, align 8, !tbaa !29
  %69 = getelementptr inbounds nuw %struct.EVRCContext, ptr %68, i32 0, i32 13
  store float 4.000000e+01, ptr %69, align 4, !tbaa !47
  %70 = load ptr, ptr %3, align 8, !tbaa !29
  %71 = getelementptr inbounds nuw %struct.EVRCContext, ptr %70, i32 0, i32 20
  store float 1.000000e+00, ptr %71, align 4, !tbaa !48
  %72 = load ptr, ptr %3, align 8, !tbaa !29
  %73 = getelementptr inbounds nuw %struct.EVRCContext, ptr %72, i32 0, i32 23
  store i8 0, ptr %73, align 1, !tbaa !49
  %74 = load ptr, ptr %3, align 8, !tbaa !29
  %75 = getelementptr inbounds nuw %struct.EVRCContext, ptr %74, i32 0, i32 15
  store float 0.000000e+00, ptr %75, align 4, !tbaa !50
  %76 = load ptr, ptr %3, align 8, !tbaa !29
  %77 = getelementptr inbounds nuw %struct.EVRCContext, ptr %76, i32 0, i32 14
  store float 0.000000e+00, ptr %77, align 8, !tbaa !51
  store i32 0, ptr %4, align 4, !tbaa !31
  br label %78

78:                                               ; preds = %143, %65
  %79 = load i32, ptr %4, align 4, !tbaa !31
  %80 = icmp slt i32 %79, 8
  br i1 %80, label %81, label %146

81:                                               ; preds = %78
  call void @llvm.lifetime.start.p0(i64 4, ptr %9) #9
  %82 = load i32, ptr %4, align 4, !tbaa !31
  %83 = sitofp i32 %82 to float
  %84 = fpext nsz float %83 to double
  %85 = fsub nsz double %84, 4.000000e+00
  %86 = fdiv nsz double %85, 8.000000e+00
  %87 = fptrunc nsz double %86 to float
  store float %87, ptr %9, align 4, !tbaa !32
  store i32 -8, ptr %5, align 4, !tbaa !31
  br label %88

88:                                               ; preds = %137, %81
  %89 = load i32, ptr %5, align 4, !tbaa !31
  %90 = icmp sle i32 %89, 8
  br i1 %90, label %91, label %142

91:                                               ; preds = %88
  call void @llvm.lifetime.start.p0(i64 4, ptr %10) #9
  %92 = load float, ptr %9, align 4, !tbaa !32
  %93 = load i32, ptr %5, align 4, !tbaa !31
  %94 = sitofp i32 %93 to float
  %95 = fsub nsz float %92, %94
  %96 = fpext nsz float %95 to double
  %97 = fmul nsz double 0x40069E9565708EFC, %96
  %98 = fptrunc nsz double %97 to float
  store float %98, ptr %10, align 4, !tbaa !32
  call void @llvm.lifetime.start.p0(i64 4, ptr %11) #9
  %99 = load float, ptr %9, align 4, !tbaa !32
  %100 = load i32, ptr %5, align 4, !tbaa !31
  %101 = sitofp i32 %100 to float
  %102 = fsub nsz float %99, %101
  %103 = fpext nsz float %102 to double
  %104 = fmul nsz double 0x400921FB54442D18, %103
  %105 = fptrunc nsz double %104 to float
  store float %105, ptr %11, align 4, !tbaa !32
  %106 = load ptr, ptr %3, align 8, !tbaa !29
  %107 = getelementptr inbounds nuw %struct.EVRCContext, ptr %106, i32 0, i32 18
  %108 = load i32, ptr %6, align 4, !tbaa !31
  %109 = sext i32 %108 to i64
  %110 = getelementptr inbounds [136 x float], ptr %107, i64 0, i64 %109
  store float 0x3FECCCCCC0000000, ptr %110, align 4, !tbaa !32
  %111 = load float, ptr %10, align 4, !tbaa !32
  %112 = fcmp nsz une float %111, 0.000000e+00
  br i1 %112, label %113, label %136

113:                                              ; preds = %91
  %114 = load float, ptr %11, align 4, !tbaa !32
  %115 = load float, ptr %7, align 4, !tbaa !32
  %116 = fmul nsz float %114, %115
  %117 = fpext nsz float %116 to double
  %118 = call nsz double @llvm.cos.f64(double %117)
  %119 = call nsz double @llvm.fmuladd.f64(double 4.600000e-01, double %118, double 5.400000e-01)
  %120 = load float, ptr %10, align 4, !tbaa !32
  %121 = fpext nsz float %120 to double
  %122 = call nsz double @llvm.sin.f64(double %121)
  %123 = fmul nsz double %119, %122
  %124 = load float, ptr %10, align 4, !tbaa !32
  %125 = fpext nsz float %124 to double
  %126 = fdiv nsz double %123, %125
  %127 = load ptr, ptr %3, align 8, !tbaa !29
  %128 = getelementptr inbounds nuw %struct.EVRCContext, ptr %127, i32 0, i32 18
  %129 = load i32, ptr %6, align 4, !tbaa !31
  %130 = sext i32 %129 to i64
  %131 = getelementptr inbounds [136 x float], ptr %128, i64 0, i64 %130
  %132 = load float, ptr %131, align 4, !tbaa !32
  %133 = fpext nsz float %132 to double
  %134 = fmul nsz double %133, %126
  %135 = fptrunc nsz double %134 to float
  store float %135, ptr %131, align 4, !tbaa !32
  br label %136

136:                                              ; preds = %113, %91
  call void @llvm.lifetime.end.p0(i64 4, ptr %11) #9
  call void @llvm.lifetime.end.p0(i64 4, ptr %10) #9
  br label %137

137:                                              ; preds = %136
  %138 = load i32, ptr %5, align 4, !tbaa !31
  %139 = add nsw i32 %138, 1
  store i32 %139, ptr %5, align 4, !tbaa !31
  %140 = load i32, ptr %6, align 4, !tbaa !31
  %141 = add nsw i32 %140, 1
  store i32 %141, ptr %6, align 4, !tbaa !31
  br label %88, !llvm.loop !52

142:                                              ; preds = %88
  call void @llvm.lifetime.end.p0(i64 4, ptr %9) #9
  br label %143

143:                                              ; preds = %142
  %144 = load i32, ptr %4, align 4, !tbaa !31
  %145 = add nsw i32 %144, 1
  store i32 %145, ptr %4, align 4, !tbaa !31
  br label %78, !llvm.loop !53

146:                                              ; preds = %78
  call void @llvm.lifetime.end.p0(i64 4, ptr %7) #9
  call void @llvm.lifetime.end.p0(i64 4, ptr %6) #9
  call void @llvm.lifetime.end.p0(i64 4, ptr %5) #9
  call void @llvm.lifetime.end.p0(i64 4, ptr %4) #9
  call void @llvm.lifetime.end.p0(i64 8, ptr %3) #9
  ret i32 0
}