; Function Attrs: cold nounwind optsize uwtable
define internal noundef i32 @evrc_decode_init(ptr noundef %0) #0 {
  %2 = getelementptr inbounds nuw i8, ptr %0, i64 32
  %3 = load ptr, ptr %2, align 8, !tbaa !4
  %4 = getelementptr inbounds nuw i8, ptr %0, i64 352
  tail call void @av_channel_layout_uninit(ptr noundef nonnull %4) #9
  store i32 1, ptr %4, align 8, !tbaa !27
  %.sroa.2.0..sroa_idx = getelementptr inbounds nuw i8, ptr %0, i64 356
  store i32 1, ptr %.sroa.2.0..sroa_idx, align 4, !tbaa !27
  %.sroa.3.0..sroa_idx = getelementptr inbounds nuw i8, ptr %0, i64 360
  store i64 4, ptr %.sroa.3.0..sroa_idx, align 8, !tbaa !28
  %.sroa.4.0..sroa_idx = getelementptr inbounds nuw i8, ptr %0, i64 368
  store ptr null, ptr %.sroa.4.0..sroa_idx, align 8, !tbaa !29
  %5 = getelementptr inbounds nuw i8, ptr %0, i64 348
  store i32 3, ptr %5, align 4, !tbaa !30
  %6 = getelementptr inbounds nuw i8, ptr %3, i64 144
  %7 = getelementptr inbounds nuw i8, ptr %3, i64 184
  br label %10

.preheader:                                       ; preds = %10
  %8 = getelementptr inbounds nuw i8, ptr %3, i64 1816
  %9 = getelementptr inbounds nuw i8, ptr %3, i64 1048
  tail call void @llvm.memset.p0.i64(ptr noundef nonnull align 4 dereferenceable(512) %9, i8 0, i64 512, i1 false), !tbaa !31
  br label %17

10:                                               ; preds = %1, %10
  %indvars.iv = phi i64 [ 0, %1 ], [ %indvars.iv.next, %10 ]
  %indvars.iv.next = add nuw nsw i64 %indvars.iv, 1
  %11 = trunc nuw nsw i64 %indvars.iv.next to i32
  %12 = uitofp nneg i32 %11 to double
  %13 = fmul nsz double %12, 4.800000e-02
  %14 = fptrunc nsz double %13 to float
  %15 = getelementptr inbounds nuw [10 x float], ptr %6, i64 0, i64 %indvars.iv
  store float %14, ptr %15, align 4, !tbaa !31
  %16 = getelementptr inbounds nuw [10 x float], ptr %7, i64 0, i64 %indvars.iv
  store float 0.000000e+00, ptr %16, align 4, !tbaa !31
  %exitcond.not = icmp eq i64 %indvars.iv.next, 10
  br i1 %exitcond.not, label %.preheader, label %10, !llvm.loop !32

17:                                               ; preds = %.preheader, %17
  %indvars.iv52 = phi i64 [ 0, %.preheader ], [ %indvars.iv.next53, %17 ]
  %18 = getelementptr inbounds nuw [128 x float], ptr %8, i64 0, i64 %indvars.iv52
  store float 0.000000e+00, ptr %18, align 4, !tbaa !31
  %indvars.iv.next53 = add nuw nsw i64 %indvars.iv52, 1
  %exitcond55.not = icmp eq i64 %indvars.iv.next53, 128
  br i1 %exitcond55.not, label %19, label %17, !llvm.loop !34

19:                                               ; preds = %17
  %20 = getelementptr inbounds nuw i8, ptr %3, i64 52
  store i32 1, ptr %20, align 4, !tbaa !35
  %21 = getelementptr inbounds nuw i8, ptr %3, i64 1036
  store float 4.000000e+01, ptr %21, align 4, !tbaa !39
  %22 = getelementptr inbounds nuw i8, ptr %3, i64 2884
  store float 1.000000e+00, ptr %22, align 4, !tbaa !40
  %23 = getelementptr inbounds nuw i8, ptr %3, i64 2893
  store i8 0, ptr %23, align 1, !tbaa !41
  %24 = getelementptr inbounds nuw i8, ptr %3, i64 1044
  store float 0.000000e+00, ptr %24, align 4, !tbaa !42
  %25 = getelementptr inbounds nuw i8, ptr %3, i64 1040
  store float 0.000000e+00, ptr %25, align 8, !tbaa !43
  %26 = getelementptr inbounds nuw i8, ptr %3, i64 2328
  br label %27

27:                                               ; preds = %19, %57
  %.250 = phi i32 [ 0, %19 ], [ %58, %57 ]
  %.04249 = phi i32 [ 0, %19 ], [ %33, %57 ]
  %28 = add nsw i32 %.250, -4
  %29 = sitofp i32 %28 to double
  %30 = fmul nsz double %29, 1.250000e-01
  %31 = fptrunc nsz double %30 to float
  %32 = sext i32 %.04249 to i64
  %33 = add i32 %.04249, 17
  br label %34

34:                                               ; preds = %27, %55
  %indvars.iv56 = phi i64 [ %32, %27 ], [ %indvars.iv.next57, %55 ]
  %.04148 = phi i32 [ -8, %27 ], [ %56, %55 ]
  %35 = sitofp i32 %.04148 to float
  %36 = fsub nsz float %31, %35
  %37 = fpext nsz float %36 to double
  %38 = fmul nsz double %37, 0x40069E9565708EFC
  %39 = fptrunc nsz double %38 to float
  %40 = getelementptr inbounds [136 x float], ptr %26, i64 0, i64 %indvars.iv56
  %41 = fcmp nsz une float %39, 0.000000e+00
  br i1 %41, label %42, label %55

42:                                               ; preds = %34
  %43 = fmul nsz double %37, 0x400921FB54442D18
  %44 = fptrunc nsz double %43 to float
  %45 = fmul nsz float %44, 0x3FBE1E1E20000000
  %46 = fpext nsz float %45 to double
  %47 = tail call nsz double @llvm.cos.f64(double %46)
  %48 = tail call nsz double @llvm.fmuladd.f64(double %47, double 4.600000e-01, double 5.400000e-01)
  %49 = fpext nsz float %39 to double
  %50 = tail call nsz double @llvm.sin.f64(double %49)
  %51 = fmul nsz double %50, %48
  %52 = fdiv nsz double %51, %49
  %53 = fmul nsz double %52, 0x3FECCCCCC0000000
  %54 = fptrunc nsz double %53 to float
  br label %55

55:                                               ; preds = %42, %34
  %storemerge = phi float [ %54, %42 ], [ 0x3FECCCCCC0000000, %34 ]
  store float %storemerge, ptr %40, align 4, !tbaa !31
  %56 = add nsw i32 %.04148, 1
  %indvars.iv.next57 = add nsw i64 %indvars.iv56, 1
  %lftr.wideiv = trunc i64 %indvars.iv.next57 to i32
  %exitcond59.not = icmp eq i32 %33, %lftr.wideiv
  br i1 %exitcond59.not, label %57, label %34, !llvm.loop !44

57:                                               ; preds = %55
  %58 = add nuw nsw i32 %.250, 1
  %exitcond60.not = icmp eq i32 %58, 8
  br i1 %exitcond60.not, label %59, label %27, !llvm.loop !45

59:                                               ; preds = %57
  ret i32 0
}